target datalayout = "e-m:e-p270:32:32-p271:32:32-p272:64:64-i64:64-i128:128-f80:128-n8:16:32:64-S128"
target triple = "x86_64-pc-linux-gnu"

%struct.ML_KEM_VINFO = type { ptr, i64, i64, i64, i64, i64, i64, i64, i32, i32, i32, i32, i32, i32 }
%struct.ossl_ml_kem_key_st = type { ptr, ptr, ptr, ptr, ptr, ptr, ptr, ptr, ptr, ptr, ptr, ptr, ptr, i32, i32, [64 x i8], ptr }
%struct.ossl_ml_kem_scalar_st = type { [256 x i16] }

; Function Attrs: nounwind uwtable
define internal i32 @scalar_decode_12(ptr noundef %0, ptr noundef %1) #0 {
  %3 = alloca i32, align 4
  %4 = alloca ptr, align 8
  %5 = alloca ptr, align 8
  %6 = alloca i32, align 4
  %7 = alloca ptr, align 8
  %8 = alloca i8, align 1
  %9 = alloca i8, align 1
  %10 = alloca i8, align 1
  %11 = alloca i32, align 4
  %12 = alloca i32, align 4
  %13 = alloca i32, align 4
  store ptr %0, ptr %4, align 8, !tbaa !40
  store ptr %1, ptr %5, align 8, !tbaa !25
  call void @llvm.lifetime.start.p0(i64 4, ptr %6) #8
  call void @llvm.lifetime.start.p0(i64 8, ptr %7) #8
  %14 = load ptr, ptr %4, align 8, !tbaa !40
  %15 = getelementptr inbounds nuw %struct.ossl_ml_kem_scalar_st, ptr %14, i32 0, i32 0
  %16 = getelementptr inbounds [256 x i16], ptr %15, i64 0, i64 0
  store ptr %16, ptr %7, align 8, !tbaa !53
  store i32 0, ptr %6, align 4, !tbaa !23
  br label %17

17:                                               ; preds = %65, %2
  %18 = load i32, ptr %6, align 4, !tbaa !23
  %19 = icmp slt i32 %18, 128
  br i1 %19, label %20, label %68

20:                                               ; preds = %17
  call void @llvm.lifetime.start.p0(i64 1, ptr %8) #8
  %21 = load ptr, ptr %5, align 8, !tbaa !25
  %22 = getelementptr inbounds nuw i8, ptr %21, i32 1
  store ptr %22, ptr %5, align 8, !tbaa !25
  %23 = load i8, ptr %21, align 1, !tbaa !48
  store i8 %23, ptr %8, align 1, !tbaa !48
  call void @llvm.lifetime.start.p0(i64 1, ptr %9) #8
  %24 = load ptr, ptr %5, align 8, !tbaa !25
  %25 = getelementptr inbounds nuw i8, ptr %24, i32 1
  store ptr %25, ptr %5, align 8, !tbaa !25
  %26 = load i8, ptr %24, align 1, !tbaa !48
  store i8 %26, ptr %9, align 1, !tbaa !48
  call void @llvm.lifetime.start.p0(i64 1, ptr %10) #8
  %27 = load ptr, ptr %5, align 8, !tbaa !25
  %28 = getelementptr inbounds nuw i8, ptr %27, i32 1
  store ptr %28, ptr %5, align 8, !tbaa !25
  %29 = load i8, ptr %27, align 1, !tbaa !48
  store i8 %29, ptr %10, align 1, !tbaa !48
  call void @llvm.lifetime.start.p0(i64 4, ptr %11) #8
  %30 = load i8, ptr %8, align 1, !tbaa !48
  %31 = zext i8 %30 to i32
  %32 = load i8, ptr %9, align 1, !tbaa !48
  %33 = zext i8 %32 to i32
  %34 = and i32 %33, 15
  %35 = shl i32 %34, 8
  %36 = or i32 %31, %35
  %37 = trunc i32 %36 to i16
  %38 = load ptr, ptr %7, align 8, !tbaa !53
  %39 = getelementptr inbounds nuw i16, ptr %38, i32 1
  store ptr %39, ptr %7, align 8, !tbaa !53
  store i16 %37, ptr %38, align 2, !tbaa !55
  %40 = zext i16 %37 to i32
  %41 = icmp sge i32 %40, 3329
  %42 = zext i1 %41 to i32
  store i32 %42, ptr %11, align 4, !tbaa !23
  call void @llvm.lifetime.start.p0(i64 4, ptr %12) #8
  %43 = load i8, ptr %9, align 1, !tbaa !48
  %44 = zext i8 %43 to i32
  %45 = ashr i32 %44, 4
  %46 = load i8, ptr %10, align 1, !tbaa !48
  %47 = zext i8 %46 to i32
  %48 = shl i32 %47, 4
  %49 = or i32 %45, %48
  %50 = trunc i32 %49 to i16
  %51 = load ptr, ptr %7, align 8, !tbaa !53
  %52 = getelementptr inbounds nuw i16, ptr %51, i32 1
  store ptr %52, ptr %7, align 8, !tbaa !53
  store i16 %50, ptr %51, align 2, !tbaa !55
  %53 = zext i16 %50 to i32
  %54 = icmp sge i32 %53, 3329
  %55 = zext i1 %54 to i32
  store i32 %55, ptr %12, align 4, !tbaa !23
  %56 = load i32, ptr %11, align 4, !tbaa !23
  %57 = load i32, ptr %12, align 4, !tbaa !23
  %58 = or i32 %56, %57
  %59 = icmp ne i32 %58, 0
  br i1 %59, label %60, label %61

60:                                               ; preds = %20
  store i32 0, ptr %3, align 4
  store i32 1, ptr %13, align 4
  br label %62

61:                                               ; preds = %20
  store i32 0, ptr %13, align 4
  br label %62

62:                                               ; preds = %61, %60
  call void @llvm.lifetime.end.p0(i64 4, ptr %12) #8
  call void @llvm.lifetime.end.p0(i64 4, ptr %11) #8
  call void @llvm.lifetime.end.p0(i64 1, ptr %10) #8
  call void @llvm.lifetime.end.p0(i64 1, ptr %9) #8
  call void @llvm.lifetime.end.p0(i64 1, ptr %8) #8
  %63 = load i32, ptr %13, align 4
  switch i32 %63, label %69 [
    i32 0, label %64
  ]

64:                                               ; preds = %62
  br label %65

65:                                               ; preds = %64
  %66 = load i32, ptr %6, align 4, !tbaa !23
  %67 = add nsw i32 %66, 1
  store i32 %67, ptr %6, align 4, !tbaa !23
  br label %17, !llvm.loop !61

68:                                               ; preds = %17
  store i32 1, ptr %3, align 4
  store i32 1, ptr %13, align 4
  br label %69

69:                                               ; preds = %68, %62
  call void @llvm.lifetime.end.p0(i64 8, ptr %7) #8
  call void @llvm.lifetime.end.p0(i64 4, ptr %6) #8
  %70 = load i32, ptr %3, align 4
  ret i32 %70
}

; Function Attrs: nounwind uwtable
define internal i32 @parse_pubkey(ptr noundef %0, ptr noundef %1, ptr noundef %2) #0 {
  %4 = alloca i32, align 4
  %5 = alloca ptr, align 8
  %6 = alloca ptr, align 8
  %7 = alloca ptr, align 8
  %8 = alloca ptr, align 8
  %9 = alloca i32, align 4
  store ptr %0, ptr %5, align 8, !tbaa !25
  store ptr %1, ptr %6, align 8, !tbaa !44
  store ptr %2, ptr %7, align 8, !tbaa !3
  call void @llvm.lifetime.start.p0(i64 8, ptr %8) #8
  %10 = load ptr, ptr %7, align 8, !tbaa !3
  %11 = getelementptr inbounds nuw %struct.ossl_ml_kem_key_st, ptr %10, i32 0, i32 0
  %12 = load ptr, ptr %11, align 8, !tbaa !16
  store ptr %12, ptr %8, align 8, !tbaa !26
  %13 = load ptr, ptr %7, align 8, !tbaa !3
  %14 = getelementptr inbounds nuw %struct.ossl_ml_kem_key_st, ptr %13, i32 0, i32 8
  %15 = load ptr, ptr %14, align 8, !tbaa !8
  %16 = load ptr, ptr %5, align 8, !tbaa !25
  %17 = load ptr, ptr %8, align 8, !tbaa !26
  %18 = getelementptr inbounds nuw %struct.ML_KEM_VINFO, ptr %17, i32 0, i32 10
  %19 = load i32, ptr %18, align 8, !tbaa !41
  %20 = call i32 @vector_decode_12(ptr noundef %15, ptr noundef %16, i32 noundef %19)
  %21 = icmp ne i32 %20, 0
  br i1 %21, label %23, label %22

22:                                               ; preds = %3
  store i32 0, ptr %4, align 4
  store i32 1, ptr %9, align 4
  br label %51

23:                                               ; preds = %3
  %24 = load ptr, ptr %7, align 8, !tbaa !3
  %25 = getelementptr inbounds nuw %struct.ossl_ml_kem_key_st, ptr %24, i32 0, i32 6
  %26 = load ptr, ptr %25, align 8, !tbaa !36
  %27 = load ptr, ptr %5, align 8, !tbaa !25
  %28 = load ptr, ptr %8, align 8, !tbaa !26
  %29 = getelementptr inbounds nuw %struct.ML_KEM_VINFO, ptr %28, i32 0, i32 6
  %30 = load i64, ptr %29, align 8, !tbaa !17
  %31 = getelementptr inbounds nuw i8, ptr %27, i64 %30
  call void @llvm.memcpy.p0.p0.i64(ptr align 1 %26, ptr align 1 %31, i64 32, i1 false)
  %32 = load ptr, ptr %7, align 8, !tbaa !3
  %33 = getelementptr inbounds nuw %struct.ossl_ml_kem_key_st, ptr %32, i32 0, i32 7
  %34 = load ptr, ptr %33, align 8, !tbaa !35
  %35 = load ptr, ptr %5, align 8, !tbaa !25
  %36 = load ptr, ptr %8, align 8, !tbaa !26
  %37 = getelementptr inbounds nuw %struct.ML_KEM_VINFO, ptr %36, i32 0, i32 3
  %38 = load i64, ptr %37, align 8, !tbaa !43
  %39 = load ptr, ptr %6, align 8, !tbaa !44
  %40 = load ptr, ptr %7, align 8, !tbaa !3
  %41 = call i32 @hash_h(ptr noundef %34, ptr noundef %35, i64 noundef %38, ptr noundef %39, ptr noundef %40)
  %42 = icmp ne i32 %41, 0
  br i1 %42, label %43, label %48

43:                                               ; preds = %23
  %44 = load ptr, ptr %6, align 8, !tbaa !44
  %45 = load ptr, ptr %7, align 8, !tbaa !3
  %46 = call i32 @matrix_expand(ptr noundef %44, ptr noundef %45)
  %47 = icmp ne i32 %46, 0
  br label %48

48:                                               ; preds = %43, %23
  %49 = phi i1 [ false, %23 ], [ %47, %43 ]
  %50 = zext i1 %49 to i32
  store i32 %50, ptr %4, align 4
  store i32 1, ptr %9, align 4
  br label %51

51:                                               ; preds = %48, %22
  call void @llvm.lifetime.end.p0(i64 8, ptr %8) #8
  %52 = load i32, ptr %4, align 4
  ret i32 %52
}

; Function Attrs: nounwind uwtable
define internal i32 @vector_decode_12(ptr noundef %0, ptr noundef %1, i32 noundef %2) #0 {
  %4 = alloca i32, align 4
  %5 = alloca ptr, align 8
  %6 = alloca ptr, align 8
  %7 = alloca i32, align 4
  %8 = alloca i32, align 4
  %9 = alloca i32, align 4
  store ptr %0, ptr %5, align 8, !tbaa !40
  store ptr %1, ptr %6, align 8, !tbaa !25
  store i32 %2, ptr %7, align 4, !tbaa !23
  call void @llvm.lifetime.start.p0(i64 4, ptr %8) #8
  store i32 384, ptr %8, align 4, !tbaa !23
  br label %10

10:                                               ; preds = %22, %3
  %11 = load i32, ptr %7, align 4, !tbaa !23
  %12 = add nsw i32 %11, -1
  store i32 %12, ptr %7, align 4, !tbaa !23
  %13 = icmp sgt i32 %11, 0
  br i1 %13, label %14, label %27

14:                                               ; preds = %10
  %15 = load ptr, ptr %5, align 8, !tbaa !40
  %16 = getelementptr inbounds nuw %struct.ossl_ml_kem_scalar_st, ptr %15, i32 1
  store ptr %16, ptr %5, align 8, !tbaa !40
  %17 = load ptr, ptr %6, align 8, !tbaa !25
  %18 = call i32 @scalar_decode_12(ptr noundef %15, ptr noundef %17)
  %19 = icmp ne i32 %18, 0
  br i1 %19, label %21, label %20

20:                                               ; preds = %14
  store i32 0, ptr %4, align 4
  store i32 1, ptr %9, align 4
  br label %28

21:                                               ; preds = %14
  br label %22

22:                                               ; preds = %21
  %23 = load i32, ptr %8, align 4, !tbaa !23
  %24 = load ptr, ptr %6, align 8, !tbaa !25
  %25 = sext i32 %23 to i64
  %26 = getelementptr inbounds i8, ptr %24, i64 %25
  store ptr %26, ptr %6, align 8, !tbaa !25
  br label %10, !llvm.loop !58

27:                                               ; preds = %10
  store i32 1, ptr %4, align 4
  store i32 1, ptr %9, align 4
  br label %28

28:                                               ; preds = %27, %20
  call void @llvm.lifetime.end.p0(i64 4, ptr %8) #8
  %29 = load i32, ptr %4, align 4
  ret i32 %29
}

; Function Attrs: nounwind uwtable
define internal i32 @parse_prvkey(ptr noundef %0, ptr noundef %1, ptr noundef %2) #0 {
  %4 = alloca i32, align 4
  %5 = alloca ptr, align 8
  %6 = alloca ptr, align 8
  %7 = alloca ptr, align 8
  %8 = alloca ptr, align 8
  %9 = alloca i32, align 4
  store ptr %0, ptr %5, align 8, !tbaa !25
  store ptr %1, ptr %6, align 8, !tbaa !44
  store ptr %2, ptr %7, align 8, !tbaa !3
  call void @llvm.lifetime.start.p0(i64 8, ptr %8) #8
  %10 = load ptr, ptr %7, align 8, !tbaa !3
  %11 = getelementptr inbounds nuw %struct.ossl_ml_kem_key_st, ptr %10, i32 0, i32 0
  %12 = load ptr, ptr %11, align 8, !tbaa !16
  store ptr %12, ptr %8, align 8, !tbaa !26
  %13 = load ptr, ptr %7, align 8, !tbaa !3
  %14 = getelementptr inbounds nuw %struct.ossl_ml_kem_key_st, ptr %13, i32 0, i32 10
  %15 = load ptr, ptr %14, align 8, !tbaa !15
  %16 = load ptr, ptr %5, align 8, !tbaa !25
  %17 = load ptr, ptr %8, align 8, !tbaa !26
  %18 = getelementptr inbounds nuw %struct.ML_KEM_VINFO, ptr %17, i32 0, i32 10
  %19 = load i32, ptr %18, align 8, !tbaa !41
  %20 = call i32 @vector_decode_12(ptr noundef %15, ptr noundef %16, i32 noundef %19)
  %21 = icmp ne i32 %20, 0
  br i1 %21, label %23, label %22

22:                                               ; preds = %3
  store i32 0, ptr %4, align 4
  store i32 1, ptr %9, align 4
  br label %55

23:                                               ; preds = %3
  %24 = load ptr, ptr %8, align 8, !tbaa !26
  %25 = getelementptr inbounds nuw %struct.ML_KEM_VINFO, ptr %24, i32 0, i32 6
  %26 = load i64, ptr %25, align 8, !tbaa !17
  %27 = load ptr, ptr %5, align 8, !tbaa !25
  %28 = getelementptr inbounds nuw i8, ptr %27, i64 %26
  store ptr %28, ptr %5, align 8, !tbaa !25
  %29 = load ptr, ptr %5, align 8, !tbaa !25
  %30 = load ptr, ptr %6, align 8, !tbaa !44
  %31 = load ptr, ptr %7, align 8, !tbaa !3
  %32 = call i32 @parse_pubkey(ptr noundef %29, ptr noundef %30, ptr noundef %31)
  %33 = icmp ne i32 %32, 0
  br i1 %33, label %35, label %34

34:                                               ; preds = %23
  store i32 0, ptr %4, align 4
  store i32 1, ptr %9, align 4
  br label %55

35:                                               ; preds = %23
  %36 = load ptr, ptr %8, align 8, !tbaa !26
  %37 = getelementptr inbounds nuw %struct.ML_KEM_VINFO, ptr %36, i32 0, i32 3
  %38 = load i64, ptr %37, align 8, !tbaa !43
  %39 = load ptr, ptr %5, align 8, !tbaa !25
  %40 = getelementptr inbounds nuw i8, ptr %39, i64 %38
  store ptr %40, ptr %5, align 8, !tbaa !25
  %41 = load ptr, ptr %7, align 8, !tbaa !3
  %42 = getelementptr inbounds nuw %struct.ossl_ml_kem_key_st, ptr %41, i32 0, i32 7
  %43 = load ptr, ptr %42, align 8, !tbaa !35
  %44 = load ptr, ptr %5, align 8, !tbaa !25
  %45 = call i32 @memcmp(ptr noundef %43, ptr noundef %44, i64 noundef 32) #9
  %46 = icmp ne i32 %45, 0
  br i1 %46, label %47, label %48

47:                                               ; preds = %35
  store i32 0, ptr %4, align 4
  store i32 1, ptr %9, align 4
  br label %55

48:                                               ; preds = %35
  %49 = load ptr, ptr %5, align 8, !tbaa !25
  %50 = getelementptr inbounds i8, ptr %49, i64 32
  store ptr %50, ptr %5, align 8, !tbaa !25
  %51 = load ptr, ptr %7, align 8, !tbaa !3
  %52 = getelementptr inbounds nuw %struct.ossl_ml_kem_key_st, ptr %51, i32 0, i32 11
  %53 = load ptr, ptr %52, align 8, !tbaa !21
  %54 = load ptr, ptr %5, align 8, !tbaa !25
  call void @llvm.memcpy.p0.p0.i64(ptr align 1 %53, ptr align 1 %54, i64 32, i1 false)
  store i32 1, ptr %4, align 4
  store i32 1, ptr %9, align 4
  br label %55

55:                                               ; preds = %48, %47, %34, %22
  call void @llvm.lifetime.end.p0(i64 8, ptr %8) #8
  %56 = load i32, ptr %4, align 4
  ret i32 %56
}