; Function Attrs: nounwind uwtable
define internal fastcc range(i32 0, 2) i32 @parse_prvkey(ptr noundef %0, ptr noundef nonnull %1, ptr noundef nonnull readonly captures(none) %2) unnamed_addr #0 {
  %4 = load ptr, ptr %2, align 8, !tbaa !14
  %5 = getelementptr inbounds nuw i8, ptr %4, i64 72
  %6 = load i32, ptr %5, align 8, !tbaa !29
  %7 = icmp sgt i32 %6, 0
  br i1 %7, label %.preheader.i.preheader, label %.thread

.preheader.i.preheader:                           ; preds = %3
  %8 = getelementptr inbounds nuw i8, ptr %2, i64 80
  %9 = load ptr, ptr %8, align 8, !tbaa !13
  br label %.preheader.i

.thread:                                          ; preds = %3
  %10 = getelementptr inbounds nuw i8, ptr %4, i64 48
  %11 = load i64, ptr %10, align 8, !tbaa !15
  %12 = getelementptr inbounds nuw i8, ptr %0, i64 %11
  br label %.loopexit.i

.preheader.i:                                     ; preds = %.preheader.i.preheader, %scalar_decode_12.exit.i
  %.in.i = phi i32 [ %13, %scalar_decode_12.exit.i ], [ %6, %.preheader.i.preheader ]
  %.0612.i = phi ptr [ %39, %scalar_decode_12.exit.i ], [ %0, %.preheader.i.preheader ]
  %.0711.i = phi ptr [ %38, %scalar_decode_12.exit.i ], [ %9, %.preheader.i.preheader ]
  %13 = add nsw i32 %.in.i, -1
  br label %14

14:                                               ; preds = %34, %.preheader.i
  %.01623.i.i = phi ptr [ %36, %34 ], [ %.0612.i, %.preheader.i ]
  %.01722.i.i = phi i32 [ %37, %34 ], [ 0, %.preheader.i ]
  %.01821.i.i = phi ptr [ %35, %34 ], [ %.0711.i, %.preheader.i ]
  %15 = getelementptr inbounds nuw i8, ptr %.01623.i.i, i64 1
  %16 = load i8, ptr %.01623.i.i, align 1, !tbaa !41
  %17 = getelementptr inbounds nuw i8, ptr %.01623.i.i, i64 2
  %18 = load i8, ptr %15, align 1, !tbaa !41
  %19 = load i8, ptr %17, align 1, !tbaa !41
  %20 = zext i8 %16 to i32
  %21 = zext i8 %18 to i32
  %22 = shl nuw nsw i32 %21, 8
  %23 = and i32 %22, 3840
  %24 = or disjoint i32 %23, %20
  %25 = trunc nuw nsw i32 %24 to i16
  %26 = getelementptr inbounds nuw i8, ptr %.01821.i.i, i64 2
  store i16 %25, ptr %.01821.i.i, align 2, !tbaa !36
  %27 = icmp samesign ult i32 %24, 3329
  %28 = lshr i32 %21, 4
  %29 = zext i8 %19 to i32
  %30 = shl nuw nsw i32 %29, 4
  %31 = or disjoint i32 %30, %28
  %32 = trunc nuw nsw i32 %31 to i16
  store i16 %32, ptr %26, align 2, !tbaa !36
  %33 = icmp samesign ult i32 %31, 3329
  %.not20.i.i = and i1 %27, %33
  br i1 %.not20.i.i, label %34, label %vector_decode_12.exit

34:                                               ; preds = %14
  %35 = getelementptr inbounds nuw i8, ptr %.01821.i.i, i64 4
  %36 = getelementptr inbounds nuw i8, ptr %.01623.i.i, i64 3
  %37 = add nuw nsw i32 %.01722.i.i, 1
  %exitcond.not.i.i = icmp eq i32 %37, 128
  br i1 %exitcond.not.i.i, label %scalar_decode_12.exit.i, label %14, !llvm.loop !42

scalar_decode_12.exit.i:                          ; preds = %34
  %38 = getelementptr inbounds nuw i8, ptr %.0711.i, i64 512
  %39 = getelementptr inbounds nuw i8, ptr %.0612.i, i64 384
  %40 = icmp sgt i32 %.in.i, 1
  br i1 %40, label %.preheader.i, label %.preheader.i.preheader.i, !llvm.loop !43

.preheader.i.preheader.i:                         ; preds = %scalar_decode_12.exit.i
  %41 = getelementptr inbounds nuw i8, ptr %4, i64 48
  %42 = load i64, ptr %41, align 8, !tbaa !15
  %43 = getelementptr inbounds nuw i8, ptr %0, i64 %42
  %44 = getelementptr inbounds nuw i8, ptr %2, i64 64
  %45 = load ptr, ptr %44, align 8, !tbaa !3
  br label %.preheader.i.i

.preheader.i.i:                                   ; preds = %scalar_decode_12.exit.i.i, %.preheader.i.preheader.i
  %.in.i.i = phi i32 [ %46, %scalar_decode_12.exit.i.i ], [ %6, %.preheader.i.preheader.i ]
  %.0612.i.i = phi ptr [ %72, %scalar_decode_12.exit.i.i ], [ %43, %.preheader.i.preheader.i ]
  %.0711.i.i = phi ptr [ %71, %scalar_decode_12.exit.i.i ], [ %45, %.preheader.i.preheader.i ]
  %46 = add nsw i32 %.in.i.i, -1
  br label %47

47:                                               ; preds = %67, %.preheader.i.i
  %.01623.i.i.i = phi ptr [ %69, %67 ], [ %.0612.i.i, %.preheader.i.i ]
  %.01722.i.i.i = phi i32 [ %70, %67 ], [ 0, %.preheader.i.i ]
  %.01821.i.i.i = phi ptr [ %68, %67 ], [ %.0711.i.i, %.preheader.i.i ]
  %48 = getelementptr inbounds nuw i8, ptr %.01623.i.i.i, i64 1
  %49 = load i8, ptr %.01623.i.i.i, align 1, !tbaa !41
  %50 = getelementptr inbounds nuw i8, ptr %.01623.i.i.i, i64 2
  %51 = load i8, ptr %48, align 1, !tbaa !41
  %52 = load i8, ptr %50, align 1, !tbaa !41
  %53 = zext i8 %49 to i32
  %54 = zext i8 %51 to i32
  %55 = shl nuw nsw i32 %54, 8
  %56 = and i32 %55, 3840
  %57 = or disjoint i32 %56, %53
  %58 = trunc nuw nsw i32 %57 to i16
  %59 = getelementptr inbounds nuw i8, ptr %.01821.i.i.i, i64 2
  store i16 %58, ptr %.01821.i.i.i, align 2, !tbaa !36
  %60 = icmp samesign ult i32 %57, 3329
  %61 = lshr i32 %54, 4
  %62 = zext i8 %52 to i32
  %63 = shl nuw nsw i32 %62, 4
  %64 = or disjoint i32 %63, %61
  %65 = trunc nuw nsw i32 %64 to i16
  store i16 %65, ptr %59, align 2, !tbaa !36
  %66 = icmp samesign ult i32 %64, 3329
  %.not20.i.i.i = and i1 %60, %66
  br i1 %.not20.i.i.i, label %67, label %vector_decode_12.exit

67:                                               ; preds = %47
  %68 = getelementptr inbounds nuw i8, ptr %.01821.i.i.i, i64 4
  %69 = getelementptr inbounds nuw i8, ptr %.01623.i.i.i, i64 3
  %70 = add nuw nsw i32 %.01722.i.i.i, 1
  %exitcond.not.i.i.i = icmp eq i32 %70, 128
  br i1 %exitcond.not.i.i.i, label %scalar_decode_12.exit.i.i, label %47, !llvm.loop !42

scalar_decode_12.exit.i.i:                        ; preds = %67
  %71 = getelementptr inbounds nuw i8, ptr %.0711.i.i, i64 512
  %72 = getelementptr inbounds nuw i8, ptr %.0612.i.i, i64 384
  %73 = icmp sgt i32 %.in.i.i, 1
  br i1 %73, label %.preheader.i.i, label %.loopexit.i, !llvm.loop !43

.loopexit.i:                                      ; preds = %scalar_decode_12.exit.i.i, %.thread
  %74 = phi ptr [ %12, %.thread ], [ %43, %scalar_decode_12.exit.i.i ]
  %75 = phi i64 [ %11, %.thread ], [ %42, %scalar_decode_12.exit.i.i ]
  %76 = getelementptr inbounds nuw i8, ptr %2, i64 48
  %77 = load ptr, ptr %76, align 8, !tbaa !31
  %78 = getelementptr inbounds nuw i8, ptr %74, i64 %75
  tail call void @llvm.memcpy.p0.p0.i64(ptr noundef nonnull align 1 dereferenceable(32) %77, ptr noundef nonnull align 1 dereferenceable(32) %78, i64 32, i1 false)
  %79 = getelementptr inbounds nuw i8, ptr %2, i64 56
  %80 = load ptr, ptr %79, align 8, !tbaa !32
  %81 = getelementptr inbounds nuw i8, ptr %4, i64 24
  %82 = load i64, ptr %81, align 8, !tbaa !35
  %83 = getelementptr i8, ptr %2, i64 32
  %.val.i = load ptr, ptr %83, align 8, !tbaa !23
  %84 = tail call fastcc i32 @hash_h(ptr noundef %80, ptr noundef %74, i64 noundef %82, ptr noundef nonnull %1, ptr %.val.i)
  %.not14.i = icmp eq i32 %84, 0
  br i1 %.not14.i, label %vector_decode_12.exit, label %parse_pubkey.exit

parse_pubkey.exit:                                ; preds = %.loopexit.i
  %85 = tail call fastcc i32 @matrix_expand(ptr noundef nonnull %1, ptr noundef nonnull readonly %2)
  %.not16 = icmp eq i32 %85, 0
  br i1 %.not16, label %vector_decode_12.exit, label %86

86:                                               ; preds = %parse_pubkey.exit
  %87 = load i64, ptr %81, align 8, !tbaa !35
  %88 = getelementptr inbounds nuw i8, ptr %74, i64 %87
  %89 = load ptr, ptr %79, align 8, !tbaa !32
  %bcmp = tail call i32 @bcmp(ptr noundef nonnull dereferenceable(32) %89, ptr noundef nonnull dereferenceable(32) %88, i64 32)
  %.not17 = icmp eq i32 %bcmp, 0
  br i1 %.not17, label %90, label %vector_decode_12.exit

90:                                               ; preds = %86
  %91 = getelementptr inbounds nuw i8, ptr %88, i64 32
  %92 = getelementptr inbounds nuw i8, ptr %2, i64 88
  %93 = load ptr, ptr %92, align 8, !tbaa !34
  tail call void @llvm.memcpy.p0.p0.i64(ptr noundef nonnull align 1 dereferenceable(32) %93, ptr noundef nonnull align 1 dereferenceable(32) %91, i64 32, i1 false)
  br label %vector_decode_12.exit

vector_decode_12.exit:                            ; preds = %14, %47, %.loopexit.i, %86, %parse_pubkey.exit, %90
  %.0 = phi i32 [ 1, %90 ], [ 0, %parse_pubkey.exit ], [ 0, %86 ], [ 0, %.loopexit.i ], [ 0, %47 ], [ 0, %14 ]
  ret i32 %.0
}